Certificate:
    Data:
        Version: 3 (0x2)
        Serial Number: 16 (0x10)
        Signature Algorithm: sha1WithRSAEncryption
        Issuer: C=US, O=Apple Inc., OU=Apple Certification Authority, CN=Apple Root CA
        Validity
            Not Before: Jan  5 19:21:59 2007 GMT
            Not After : Jan  5 19:21:59 2022 GMT
        Subject: C=US, O=Apple Inc., OU=Apple Certification Authority, CN=Apple Secure Boot Certification Authority
        Subject Public Key Info:
            Public Key Algorithm: rsaEncryption
            RSA Public Key: (2048 bit)
                Modulus (2048 bit):
                    00:fe:f2:dd:da:65:39:b0:72:e3:03:84:81:f4:56:
                    c9:d1:a1:4a:bb:c8:04:01:f3:46:0d:95:e1:37:95:
                    0a:69:47:c6:c4:8c:79:3e:47:55:06:b2:06:14:eb:
                    7e:a4:f5:23:fe:42:35:98:ef:34:05:ce:9a:d3:ad:
                    94:d0:a2:0f:c2:d2:b4:04:48:4c:23:5a:5b:c7:0b:
                    9d:62:d3:f3:e3:6b:10:fe:97:08:57:c6:12:76:77:
                    19:b2:c6:c3:2c:98:ed:b7:29:87:e4:dc:18:b6:e5:
                    f3:ba:13:fb:b2:b6:b7:67:d9:cb:df:6f:a5:93:3d:
                    ed:7a:93:67:b4:fd:34:16:e4:00:ab:0b:b7:4e:1f:
                    5a:d6:03:68:3e:72:b6:14:30:3a:0c:64:97:a0:46:
                    22:79:1b:77:2c:5b:2e:90:e0:11:dc:16:a3:e1:c8:
                    f7:84:b2:4f:dc:4b:3a:0a:d5:12:7e:dc:11:3f:fa:
                    11:73:65:1a:49:70:a0:7e:75:82:b4:3c:2b:2f:55:
                    df:30:88:b1:75:4d:45:dc:07:28:2d:4a:3a:85:fd:
                    9f:95:3e:22:ba:9c:46:f7:b7:68:7b:b3:94:d5:42:
                    3e:05:b3:38:f8:67:79:48:8c:6c:1f:8b:be:ee:ed:
                    54:05:d5:a3:0b:58:7d:78:0f:24:a9:a1:dc:0a:74:
                    ea:f7
                Exponent: 65537 (0x10001)
        X509v3 extensions:
            X509v3 Key Usage: critical
                Digital Signature, Certificate Sign, CRL Sign
            X509v3 Basic Constraints: critical
                CA:TRUE
            X509v3 Subject Key Identifier: 
                49:3D:36:53:C9:D7:15:E1:86:61:4E:AC:AB:AB:18:56:63:5D:C3:C6
            X509v3 Authority Key Identifier: 
                keyid:2B:D0:69:47:94:76:09:FE:F4:6B:8D:2E:40:A6:F7:47:4D:7F:08:5E

            X509v3 CRL Distribution Points: 
                URI:http://www.apple.com/appleca/root.crl

    Signature Algorithm: sha1WithRSAEncryption
        34:c5:0c:c5:0e:59:11:2f:a6:c2:9f:32:78:e7:64:32:69:db:
        ad:c2:25:ca:b7:47:83:b7:92:3c:71:53:a0:b2:ad:30:95:80:
        50:bd:6d:5f:4c:dc:ce:78:0d:4c:49:10:50:38:10:35:bf:45:
        81:ac:66:58:2c:21:23:f8:96:5e:80:e9:d3:c6:4c:fd:85:ae:
        39:61:f6:28:aa:44:ed:15:9b:3f:47:c0:57:ac:67:1c:8c:cd:
        d4:93:8d:4f:db:6a:54:a7:7b:42:5b:0f:99:c6:d7:38:ab:52:
        a7:a1:83:1d:85:30:74:ea:0d:1d:da:68:84:8f:e2:84:7e:cb:
        b9:41:6e:d5:9f:a8:42:b5:ff:33:b6:71:7f:ea:a3:b9:dd:49:
        03:60:85:76:10:3e:8e:a8:e1:36:e3:12:dd:85:6c:ed:66:53:
        b0:5b:48:9b:2f:7f:f6:ca:1c:f0:5d:98:2d:74:ad:f0:48:47:
        c5:e1:9a:67:b2:22:0f:b0:0e:02:a0:e1:ba:6a:62:b9:b4:b5:
        71:f4:25:e1:b3:e5:a0:ed:c8:1a:40:b5:f8:31:15:05:a4:5c:
        38:23:4c:90:9d:47:03:80:80:d4:32:90:45:8f:0f:af:9b:fc:
        02:ee:ed:cb:e6:31:f6:9f:15:e6:7d:2b:57:43:0e:e2:0f:a1:
        a0:ad:89:da
-----BEGIN CERTIFICATE-----
MIID+DCCAuCgAwIBAgIBEDANBgkqhkiG9w0BAQUFADBiMQswCQYDVQQGEwJVUzET
MBEGA1UEChMKQXBwbGUgSW5jLjEmMCQGA1UECxMdQXBwbGUgQ2VydGlmaWNhdGlv
biBBdXRob3JpdHkxFjAUBgNVBAMTDUFwcGxlIFJvb3QgQ0EwHhcNMDcwMTA1MTky
MTU5WhcNMjIwMTA1MTkyMTU5WjB+MQswCQYDVQQGEwJVUzETMBEGA1UEChMKQXBw
bGUgSW5jLjEmMCQGA1UECxMdQXBwbGUgQ2VydGlmaWNhdGlvbiBBdXRob3JpdHkx
MjAwBgNVBAMTKUFwcGxlIFNlY3VyZSBCb290IENlcnRpZmljYXRpb24gQXV0aG9y
aXR5MIIBIjANBgkqhkiG9w0BAQEFAAOCAQ8AMIIBCgKCAQEA/vLd2mU5sHLjA4SB
9FbJ0aFKu8gEAfNGDZXhN5UKaUfGxIx5PkdVBrIGFOt+pPUj/kI1mO80Bc6a062U
0KIPwtK0BEhMI1pbxwudYtPz42sQ/pcIV8YSdncZssbDLJjttymH5NwYtuXzuhP7
sra3Z9nL32+lkz3tepNntP00FuQAqwu3Th9a1gNoPnK2FDA6DGSXoEYieRt3LFsu
kOAR3Baj4cj3hLJP3Es6CtUSftwRP/oRc2UaSXCgfnWCtDwrL1XfMIixdU1F3Aco
LUo6hf2flT4iupxG97doe7OU1UI+BbM4+Gd5SIxsH4u+7u1UBdWjC1h9eA8kqaHc
CnTq9wIDAQABo4GcMIGZMA4GA1UdDwEB/wQEAwIBhjAPBgNVHRMBAf8EBTADAQH/
MB0GA1UdDgQWBBRJPTZTydcV4YZhTqyrqxhWY13DxjAfBgNVHSMEGDAWgBQr0GlH
lHYJ/vRrjS5ApvdHTX8IXjA2BgNVHR8ELzAtMCugKaAnhiVodHRwOi8vd3d3LmFw
cGxlLmNvbS9hcHBsZWNhL3Jvb3QuY3JsMA0GCSqGSIb3DQEBBQUAA4IBAQA0xQzF
DlkRL6bCnzJ452QyadutwiXKt0eDt5I8cVOgsq0wlYBQvW1fTNzOeA1MSRBQOBA1
v0WBrGZYLCEj+JZegOnTxkz9ha45YfYoqkTtFZs/R8BXrGccjM3Uk41P22pUp3tC
Ww+Zxtc4q1KnoYMdhTB06g0d2miEj+KEfsu5QW7Vn6hCtf8ztnF/6qO53UkDYIV2
ED6OqOE24xLdhWztZlOwW0ibL3/2yhzwXZgtdK3wSEfF4ZpnsiIPsA4CoOG6amK5
tLVx9CXhs+Wg7cgaQLX4MRUFpFw4I0yQnUcDgIDUMpBFjw+vm/wC7u3L5jH2nxXm
fStXQw7iD6GgrYna
-----END CERTIFICATE-----
